#include <math.h>
#include <stdio.h>
#include <stdlib.h>
#include <string.h>

void main()
{
	char c1[100],c2[100],*p,*pc1,*pc2;
	int i,j,k,n=0,m;
	pc1=c1;
	pc2=c2;
	scanf("%s",c1);
	scanf("%s",c2);
	p=strstr(c2,c1);
	for(i=0;*(pc2+i)!='\0';i++)
		if((pc2+i)==p)break;
	printf("%d",i);
}
